target datalayout = "e-m:e-p270:32:32-p271:32:32-p272:64:64-i64:64-i128:128-f80:128-n8:16:32:64-S128"
target triple = "x86_64-pc-linux-gnu"

; Function Attrs: mustprogress nounwind uwtable
define linkonce_odr hidden noundef zeroext i8 @_ZN4llvm13to_underlyingINS_5MachO11SymbolFlagsEEENSt15underlying_typeIT_E4typeES4_(i8 noundef zeroext %0) #0 comdat {
  %2 = alloca i8, align 1
  store i8 %0, ptr %2, align 1
  %3 = load i8, ptr %2, align 1
  ret i8 %3
}

; Function Attrs: mustprogress nounwind uwtable
define linkonce_odr hidden noundef zeroext i8 @_ZN4llvm17BitmaskEnumDetail10UnderlyingINS_5MachO11SymbolFlagsEEENSt15underlying_typeIT_E4typeES5_(i8 noundef zeroext %0) #0 comdat {
  %2 = alloca i8, align 1
  %3 = alloca i8, align 1
  store i8 %0, ptr %2, align 1
  %4 = load i8, ptr %2, align 1
  %5 = call noundef zeroext i8 @_ZN4llvm13to_underlyingINS_5MachO11SymbolFlagsEEENSt15underlying_typeIT_E4typeES4_(i8 noundef zeroext %4)
  store i8 %5, ptr %3, align 1
  %6 = load i8, ptr %3, align 1
  ret i8 %6
}

; Function Attrs: mustprogress nounwind uwtable
define linkonce_odr hidden noundef zeroext i8 @_ZN4llvm17BitmaskEnumDetailorINS_5MachO11SymbolFlagsEvEET_S4_S4_(i8 noundef zeroext %0, i8 noundef zeroext %1) #0 comdat {
  %3 = alloca i8, align 1
  %4 = alloca i8, align 1
  store i8 %0, ptr %3, align 1
  store i8 %1, ptr %4, align 1
  %5 = load i8, ptr %3, align 1
  %6 = call noundef zeroext i8 @_ZN4llvm17BitmaskEnumDetail10UnderlyingINS_5MachO11SymbolFlagsEEENSt15underlying_typeIT_E4typeES5_(i8 noundef zeroext %5)
  %7 = zext i8 %6 to i32
  %8 = load i8, ptr %4, align 1
  %9 = call noundef zeroext i8 @_ZN4llvm17BitmaskEnumDetail10UnderlyingINS_5MachO11SymbolFlagsEEENSt15underlying_typeIT_E4typeES5_(i8 noundef zeroext %8)
  %10 = zext i8 %9 to i32
  %11 = or i32 %7, %10
  %12 = trunc i32 %11 to i8
  ret i8 %12
}

; Function Attrs: mustprogress nounwind uwtable
define linkonce_odr noundef nonnull align 1 dereferenceable(1) ptr @_ZN4llvm17BitmaskEnumDetailoRINS_5MachO11SymbolFlagsEvEERT_S5_S4_(ptr noundef nonnull align 1 dereferenceable(1) %0, i8 noundef zeroext %1) #0 comdat {
  %3 = alloca ptr, align 8
  %4 = alloca i8, align 1
  store ptr %0, ptr %3, align 8
  store i8 %1, ptr %4, align 1
  %5 = load ptr, ptr %3, align 8
  %6 = load i8, ptr %5, align 1
  %7 = load i8, ptr %4, align 1
  %8 = call noundef zeroext i8 @_ZN4llvm17BitmaskEnumDetailorINS_5MachO11SymbolFlagsEvEET_S4_S4_(i8 noundef zeroext %6, i8 noundef zeroext %7)
  %9 = load ptr, ptr %3, align 8
  store i8 %8, ptr %9, align 1
  %10 = load ptr, ptr %3, align 8
  ret ptr %10
}

; Function Attrs: mustprogress nounwind uwtable
define dso_local noundef zeroext i8 @_ZN4llvm5MachO6Record10mergeFlagsENS0_11SymbolFlagsENS0_13RecordLinkageE(ptr noundef nonnull align 8 dereferenceable(19) %0, i8 noundef zeroext %1, i8 noundef zeroext %2) #0 align 2 {
  %4 = alloca i8, align 1
  %5 = alloca ptr, align 8
  %6 = alloca i8, align 1
  %7 = alloca i8, align 1
  store ptr %0, ptr %5, align 8
  store i8 %1, ptr %6, align 1
  store i8 %2, ptr %7, align 1
  %8 = load i8, ptr %7, align 1
  switch i8 %8, label %15 [
    i8 3, label %9
    i8 2, label %12
  ]

9:                                                ; preds = %3
  %10 = call noundef nonnull align 1 dereferenceable(1) ptr @_ZN4llvm17BitmaskEnumDetailoRINS_5MachO11SymbolFlagsEvEERT_S5_S4_(ptr noundef nonnull align 1 dereferenceable(1) %6, i8 noundef zeroext 16)
  %11 = load i8, ptr %6, align 1
  store i8 %11, ptr %4, align 1
  br label %17

12:                                               ; preds = %3
  %13 = call noundef nonnull align 1 dereferenceable(1) ptr @_ZN4llvm17BitmaskEnumDetailoRINS_5MachO11SymbolFlagsEvEERT_S5_S4_(ptr noundef nonnull align 1 dereferenceable(1) %6, i8 noundef zeroext 8)
  %14 = load i8, ptr %6, align 1
  store i8 %14, ptr %4, align 1
  br label %17

15:                                               ; preds = %3
  %16 = load i8, ptr %6, align 1
  store i8 %16, ptr %4, align 1
  br label %17

17:                                               ; preds = %15, %12, %9
  %18 = load i8, ptr %4, align 1
  ret i8 %18
}