; Function Attrs: mustprogress nofree norecurse nosync nounwind willreturn memory(none) uwtable
define dso_local noundef zeroext i8 @_ZN4llvm5MachO6Record10mergeFlagsENS0_11SymbolFlagsENS0_13RecordLinkageE(ptr nocapture noundef nonnull readnone align 8 dereferenceable(19) %0, i8 noundef zeroext %1, i8 noundef zeroext %2) local_unnamed_addr #6 align 2 {
  switch i8 %2, label %8 [
    i8 3, label %4
    i8 2, label %6
  ]

4:                                                ; preds = %3
  %5 = or i8 %1, 16
  br label %8

6:                                                ; preds = %3
  %7 = or i8 %1, 8
  br label %8

8:                                                ; preds = %3, %6, %4
  %.0 = phi i8 [ %7, %6 ], [ %5, %4 ], [ %1, %3 ]
  ret i8 %.0
}